target datalayout = "e-m:e-p270:32:32-p271:32:32-p272:64:64-i64:64-i128:128-f80:128-n8:16:32:64-S128"
target triple = "x86_64-unknown-linux-gnu"

%"class.std::__cxx11::basic_string" = type { %"struct.std::__cxx11::basic_string<char>::_Alloc_hider", i64, %union.anon }
%"struct.std::__cxx11::basic_string<char>::_Alloc_hider" = type { ptr }
%union.anon = type { i64, [8 x i8] }
%"class.std::_Rb_tree.41" = type { %"struct.std::_Rb_tree<const void *, std::pair<const void *const, testing::(anonymous namespace)::MockObjectState>, std::_Select1st<std::pair<const void *const, testing::(anonymous namespace)::MockObjectState>>, std::less<const void *>>::_Rb_tree_impl" }
%"struct.std::_Rb_tree<const void *, std::pair<const void *const, testing::(anonymous namespace)::MockObjectState>, std::_Select1st<std::pair<const void *const, testing::(anonymous namespace)::MockObjectState>>, std::less<const void *>>::_Rb_tree_impl" = type { %"struct.std::_Rb_tree_key_compare.45", %"struct.std::_Rb_tree_header" }
%"struct.std::_Rb_tree_key_compare.45" = type { %"struct.std::less" }
%"struct.std::less" = type { i8 }
%"struct.std::_Rb_tree_header" = type { %"struct.std::_Rb_tree_node_base", i64 }
%"struct.std::_Rb_tree_node_base" = type { i32, ptr, ptr, ptr }
%"struct.testing::(anonymous namespace)::MockObjectState" = type { ptr, i32, %"class.std::__cxx11::basic_string", %"class.std::__cxx11::basic_string", i8, %"class.std::set.51" }
%"class.std::set.51" = type { %"class.std::_Rb_tree.52" }
%"class.std::_Rb_tree.52" = type { %"struct.std::_Rb_tree<testing::internal::UntypedFunctionMockerBase *, testing::internal::UntypedFunctionMockerBase *, std::_Identity<testing::internal::UntypedFunctionMockerBase *>, std::less<testing::internal::UntypedFunctionMockerBase *>>::_Rb_tree_impl" }
%"struct.std::_Rb_tree<testing::internal::UntypedFunctionMockerBase *, testing::internal::UntypedFunctionMockerBase *, std::_Identity<testing::internal::UntypedFunctionMockerBase *>, std::less<testing::internal::UntypedFunctionMockerBase *>>::_Rb_tree_impl" = type { %"struct.std::_Rb_tree_key_compare.56", %"struct.std::_Rb_tree_header" }
%"struct.std::_Rb_tree_key_compare.56" = type { %"struct.std::less.57" }
%"struct.std::less.57" = type { i8 }
%"struct.std::pair.73" = type { ptr, %"struct.testing::(anonymous namespace)::MockObjectState" }
%"struct.std::_Rb_tree_node.92" = type { %"struct.std::_Rb_tree_node_base", %"struct.__gnu_cxx::__aligned_membuf.93" }
%"struct.__gnu_cxx::__aligned_membuf.93" = type { [144 x i8] }

; Function Attrs: mustprogress nounwind uwtable
define linkonce_odr void @_ZNSt15__new_allocatorISt13_Rb_tree_nodeIPN7testing8internal25UntypedFunctionMockerBaseEEED2Ev(ptr noundef nonnull align 1 dereferenceable(1) %this) unnamed_addr #7 comdat align 2 {
entry:
  %this.addr = alloca ptr, align 8
  store ptr %this, ptr %this.addr, align 8
  ret void
}

; Function Attrs: mustprogress nounwind uwtable
define linkonce_odr void @_ZNSaISt13_Rb_tree_nodeIPN7testing8internal25UntypedFunctionMockerBaseEEED2Ev(ptr noundef nonnull align 1 dereferenceable(1) %this) unnamed_addr #7 comdat align 2 {
entry:
  %this.addr = alloca ptr, align 8
  store ptr %this, ptr %this.addr, align 8
  %this1 = load ptr, ptr %this.addr, align 8
  call void @_ZNSt15__new_allocatorISt13_Rb_tree_nodeIPN7testing8internal25UntypedFunctionMockerBaseEEED2Ev(ptr noundef nonnull align 1 dereferenceable(1) %this1) #3
  ret void
}

; Function Attrs: mustprogress nounwind uwtable
define linkonce_odr noundef ptr @_ZNKSt8_Rb_treeIPN7testing8internal25UntypedFunctionMockerBaseES3_St9_IdentityIS3_ESt4lessIS3_ESaIS3_EE9_M_mbeginEv(ptr noundef nonnull align 8 dereferenceable(48) %this) #7 comdat align 2 {
entry:
  %this.addr = alloca ptr, align 8
  store ptr %this, ptr %this.addr, align 8
  %this1 = load ptr, ptr %this.addr, align 8
  %_M_impl = getelementptr inbounds %"class.std::_Rb_tree.52", ptr %this1, i32 0, i32 0
  %add.ptr = getelementptr inbounds i8, ptr %_M_impl, i64 8
  %_M_header = getelementptr inbounds %"struct.std::_Rb_tree_header", ptr %add.ptr, i32 0, i32 0
  %_M_parent = getelementptr inbounds %"struct.std::_Rb_tree_node_base", ptr %_M_header, i32 0, i32 1
  %0 = load ptr, ptr %_M_parent, align 8
  ret ptr %0
}

; Function Attrs: mustprogress nounwind uwtable
define linkonce_odr void @_ZNSt8_Rb_treeIPN7testing8internal25UntypedFunctionMockerBaseES3_St9_IdentityIS3_ESt4lessIS3_ESaIS3_EE13_Rb_tree_implIS7_Lb1EED2Ev(ptr noundef nonnull align 8 dereferenceable(48) %this) unnamed_addr #7 comdat align 2 {
entry:
  %this.addr = alloca ptr, align 8
  store ptr %this, ptr %this.addr, align 8
  %this1 = load ptr, ptr %this.addr, align 8
  call void @_ZNSaISt13_Rb_tree_nodeIPN7testing8internal25UntypedFunctionMockerBaseEEED2Ev(ptr noundef nonnull align 1 dereferenceable(1) %this1) #3
  ret void
}

; Function Attrs: mustprogress nounwind uwtable
define linkonce_odr noundef ptr @_ZNSt8_Rb_treeIPN7testing8internal25UntypedFunctionMockerBaseES3_St9_IdentityIS3_ESt4lessIS3_ESaIS3_EE8_M_beginEv(ptr noundef nonnull align 8 dereferenceable(48) %this) #7 comdat align 2 {
entry:
  %this.addr = alloca ptr, align 8
  store ptr %this, ptr %this.addr, align 8
  %this1 = load ptr, ptr %this.addr, align 8
  %call = call noundef ptr @_ZNKSt8_Rb_treeIPN7testing8internal25UntypedFunctionMockerBaseES3_St9_IdentityIS3_ESt4lessIS3_ESaIS3_EE9_M_mbeginEv(ptr noundef nonnull align 8 dereferenceable(48) %this1) #3
  ret ptr %call
}

; Function Attrs: mustprogress nounwind uwtable
define linkonce_odr void @_ZNSt8_Rb_treeIPN7testing8internal25UntypedFunctionMockerBaseES3_St9_IdentityIS3_ESt4lessIS3_ESaIS3_EED2Ev(ptr noundef nonnull align 8 dereferenceable(48) %this) unnamed_addr #7 comdat align 2 personality ptr @__gxx_personality_v0 {
entry:
  %this.addr = alloca ptr, align 8
  store ptr %this, ptr %this.addr, align 8
  %this1 = load ptr, ptr %this.addr, align 8
  %call = call noundef ptr @_ZNSt8_Rb_treeIPN7testing8internal25UntypedFunctionMockerBaseES3_St9_IdentityIS3_ESt4lessIS3_ESaIS3_EE8_M_beginEv(ptr noundef nonnull align 8 dereferenceable(48) %this1) #3
  invoke void @_ZNSt8_Rb_treeIPN7testing8internal25UntypedFunctionMockerBaseES3_St9_IdentityIS3_ESt4lessIS3_ESaIS3_EE8_M_eraseEPSt13_Rb_tree_nodeIS3_E(ptr noundef nonnull align 8 dereferenceable(48) %this1, ptr noundef %call)
          to label %invoke.cont unwind label %terminate.lpad

invoke.cont:                                      ; preds = %entry
  %_M_impl = getelementptr inbounds %"class.std::_Rb_tree.52", ptr %this1, i32 0, i32 0
  call void @_ZNSt8_Rb_treeIPN7testing8internal25UntypedFunctionMockerBaseES3_St9_IdentityIS3_ESt4lessIS3_ESaIS3_EE13_Rb_tree_implIS7_Lb1EED2Ev(ptr noundef nonnull align 8 dereferenceable(48) %_M_impl) #3
  ret void

terminate.lpad:                                   ; preds = %entry
  %0 = landingpad { ptr, i32 }
          catch ptr null
  %1 = extractvalue { ptr, i32 } %0, 0
  call void @__clang_call_terminate(ptr %1) #19
  unreachable
}

; Function Attrs: mustprogress nounwind uwtable
define linkonce_odr void @_ZNSt3setIPN7testing8internal25UntypedFunctionMockerBaseESt4lessIS3_ESaIS3_EED2Ev(ptr noundef nonnull align 8 dereferenceable(48) %this) unnamed_addr #7 comdat align 2 {
entry:
  %this.addr = alloca ptr, align 8
  store ptr %this, ptr %this.addr, align 8
  %this1 = load ptr, ptr %this.addr, align 8
  %_M_t = getelementptr inbounds %"class.std::set.51", ptr %this1, i32 0, i32 0
  call void @_ZNSt8_Rb_treeIPN7testing8internal25UntypedFunctionMockerBaseES3_St9_IdentityIS3_ESt4lessIS3_ESaIS3_EED2Ev(ptr noundef nonnull align 8 dereferenceable(48) %_M_t) #3
  ret void
}

; Function Attrs: mustprogress nounwind uwtable
define internal void @_ZN7testing12_GLOBAL__N_115MockObjectStateD2Ev(ptr noundef nonnull align 8 dereferenceable(136) %this) unnamed_addr #7 align 2 {
entry:
  %this.addr = alloca ptr, align 8
  store ptr %this, ptr %this.addr, align 8
  %this1 = load ptr, ptr %this.addr, align 8
  %function_mockers = getelementptr inbounds %"struct.testing::(anonymous namespace)::MockObjectState", ptr %this1, i32 0, i32 5
  call void @_ZNSt3setIPN7testing8internal25UntypedFunctionMockerBaseESt4lessIS3_ESaIS3_EED2Ev(ptr noundef nonnull align 8 dereferenceable(48) %function_mockers) #3
  %first_used_test = getelementptr inbounds %"struct.testing::(anonymous namespace)::MockObjectState", ptr %this1, i32 0, i32 3
  call void @_ZNSt7__cxx1112basic_stringIcSt11char_traitsIcESaIcEED1Ev(ptr noundef nonnull align 8 dereferenceable(32) %first_used_test) #3
  %first_used_test_case = getelementptr inbounds %"struct.testing::(anonymous namespace)::MockObjectState", ptr %this1, i32 0, i32 2
  call void @_ZNSt7__cxx1112basic_stringIcSt11char_traitsIcESaIcEED1Ev(ptr noundef nonnull align 8 dereferenceable(32) %first_used_test_case) #3
  ret void
}

; Function Attrs: mustprogress nounwind uwtable
define internal void @_ZNSt4pairIKPKvN7testing12_GLOBAL__N_115MockObjectStateEED2Ev(ptr noundef nonnull align 8 dereferenceable(144) %this) unnamed_addr #7 align 2 {
entry:
  %this.addr = alloca ptr, align 8
  store ptr %this, ptr %this.addr, align 8
  %this1 = load ptr, ptr %this.addr, align 8
  %second = getelementptr inbounds %"struct.std::pair.73", ptr %this1, i32 0, i32 1
  call void @_ZN7testing12_GLOBAL__N_115MockObjectStateD2Ev(ptr noundef nonnull align 8 dereferenceable(136) %second) #3
  ret void
}

; Function Attrs: mustprogress nounwind uwtable
define internal noundef ptr @_ZN9__gnu_cxx16__aligned_membufISt4pairIKPKvN7testing12_GLOBAL__N_115MockObjectStateEEE7_M_addrEv(ptr noundef nonnull align 8 dereferenceable(144) %this) #7 align 2 {
entry:
  %this.addr = alloca ptr, align 8
  store ptr %this, ptr %this.addr, align 8
  %this1 = load ptr, ptr %this.addr, align 8
  %_M_storage = getelementptr inbounds %"struct.__gnu_cxx::__aligned_membuf.93", ptr %this1, i32 0, i32 0
  ret ptr %_M_storage
}

; Function Attrs: mustprogress nounwind uwtable
define internal void @_ZNSt15__new_allocatorISt13_Rb_tree_nodeISt4pairIKPKvN7testing12_GLOBAL__N_115MockObjectStateEEEE10deallocateEPS9_m(ptr noundef nonnull align 1 dereferenceable(1) %this, ptr noundef %__p, i64 noundef %__n) #7 align 2 {
entry:
  %this.addr = alloca ptr, align 8
  %__p.addr = alloca ptr, align 8
  %__n.addr = alloca i64, align 8
  store ptr %this, ptr %this.addr, align 8
  store ptr %__p, ptr %__p.addr, align 8
  store i64 %__n, ptr %__n.addr, align 8
  %0 = load ptr, ptr %__p.addr, align 8
  call void @_ZdlPv(ptr noundef %0) #17
  ret void
}

; Function Attrs: mustprogress nounwind uwtable
define internal void @_ZNSt15__new_allocatorISt13_Rb_tree_nodeISt4pairIKPKvN7testing12_GLOBAL__N_115MockObjectStateEEEE7destroyIS8_EEvPT_(ptr noundef nonnull align 1 dereferenceable(1) %this, ptr noundef %__p) #7 align 2 {
entry:
  %this.addr = alloca ptr, align 8
  %__p.addr = alloca ptr, align 8
  store ptr %this, ptr %this.addr, align 8
  store ptr %__p, ptr %__p.addr, align 8
  %0 = load ptr, ptr %__p.addr, align 8
  call void @_ZNSt4pairIKPKvN7testing12_GLOBAL__N_115MockObjectStateEED2Ev(ptr noundef nonnull align 8 dereferenceable(144) %0) #3
  ret void
}

; Function Attrs: mustprogress nounwind uwtable
define internal noundef ptr @_ZN9__gnu_cxx16__aligned_membufISt4pairIKPKvN7testing12_GLOBAL__N_115MockObjectStateEEE6_M_ptrEv(ptr noundef nonnull align 8 dereferenceable(144) %this) #7 align 2 {
entry:
  %this.addr = alloca ptr, align 8
  store ptr %this, ptr %this.addr, align 8
  %this1 = load ptr, ptr %this.addr, align 8
  %call = call noundef ptr @_ZN9__gnu_cxx16__aligned_membufISt4pairIKPKvN7testing12_GLOBAL__N_115MockObjectStateEEE7_M_addrEv(ptr noundef nonnull align 8 dereferenceable(144) %this1) #3
  ret ptr %call
}

; Function Attrs: mustprogress uwtable
define internal void @_ZNSt16allocator_traitsISaISt13_Rb_tree_nodeISt4pairIKPKvN7testing12_GLOBAL__N_115MockObjectStateEEEEE10deallocateERSA_PS9_m(ptr noundef nonnull align 1 dereferenceable(1) %__a, ptr noundef %__p, i64 noundef %__n) #4 align 2 {
entry:
  %__a.addr = alloca ptr, align 8
  %__p.addr = alloca ptr, align 8
  %__n.addr = alloca i64, align 8
  store ptr %__a, ptr %__a.addr, align 8
  store ptr %__p, ptr %__p.addr, align 8
  store i64 %__n, ptr %__n.addr, align 8
  %0 = load ptr, ptr %__a.addr, align 8
  %1 = load ptr, ptr %__p.addr, align 8
  %2 = load i64, ptr %__n.addr, align 8
  call void @_ZNSt15__new_allocatorISt13_Rb_tree_nodeISt4pairIKPKvN7testing12_GLOBAL__N_115MockObjectStateEEEE10deallocateEPS9_m(ptr noundef nonnull align 1 dereferenceable(1) %0, ptr noundef %1, i64 noundef %2)
  ret void
}

; Function Attrs: mustprogress nounwind uwtable
define internal void @_ZNSt16allocator_traitsISaISt13_Rb_tree_nodeISt4pairIKPKvN7testing12_GLOBAL__N_115MockObjectStateEEEEE7destroyIS8_EEvRSA_PT_(ptr noundef nonnull align 1 dereferenceable(1) %__a, ptr noundef %__p) #7 align 2 {
entry:
  %__a.addr = alloca ptr, align 8
  %__p.addr = alloca ptr, align 8
  store ptr %__a, ptr %__a.addr, align 8
  store ptr %__p, ptr %__p.addr, align 8
  %0 = load ptr, ptr %__a.addr, align 8
  %1 = load ptr, ptr %__p.addr, align 8
  call void @_ZNSt15__new_allocatorISt13_Rb_tree_nodeISt4pairIKPKvN7testing12_GLOBAL__N_115MockObjectStateEEEE7destroyIS8_EEvPT_(ptr noundef nonnull align 1 dereferenceable(1) %0, ptr noundef %1) #3
  ret void
}

; Function Attrs: mustprogress nounwind uwtable
define internal noundef ptr @_ZNSt13_Rb_tree_nodeISt4pairIKPKvN7testing12_GLOBAL__N_115MockObjectStateEEE9_M_valptrEv(ptr noundef nonnull align 8 dereferenceable(176) %this) #7 align 2 {
entry:
  %this.addr = alloca ptr, align 8
  store ptr %this, ptr %this.addr, align 8
  %this1 = load ptr, ptr %this.addr, align 8
  %_M_storage = getelementptr inbounds %"struct.std::_Rb_tree_node.92", ptr %this1, i32 0, i32 1
  %call = call noundef ptr @_ZN9__gnu_cxx16__aligned_membufISt4pairIKPKvN7testing12_GLOBAL__N_115MockObjectStateEEE6_M_ptrEv(ptr noundef nonnull align 8 dereferenceable(144) %_M_storage) #3
  ret ptr %call
}

; Function Attrs: mustprogress nounwind uwtable
define internal noundef nonnull align 1 dereferenceable(1) ptr @_ZNSt8_Rb_treeIPKvSt4pairIKS1_N7testing12_GLOBAL__N_115MockObjectStateEESt10_Select1stIS7_ESt4lessIS1_ESaIS7_EE21_M_get_Node_allocatorEv(ptr noundef nonnull align 8 dereferenceable(48) %this) #7 align 2 {
entry:
  %this.addr = alloca ptr, align 8
  store ptr %this, ptr %this.addr, align 8
  %this1 = load ptr, ptr %this.addr, align 8
  %_M_impl = getelementptr inbounds %"class.std::_Rb_tree.41", ptr %this1, i32 0, i32 0
  ret ptr %_M_impl
}

; Function Attrs: mustprogress nounwind uwtable
define internal void @_ZNSt8_Rb_treeIPKvSt4pairIKS1_N7testing12_GLOBAL__N_115MockObjectStateEESt10_Select1stIS7_ESt4lessIS1_ESaIS7_EE11_M_put_nodeEPSt13_Rb_tree_nodeIS7_E(ptr noundef nonnull align 8 dereferenceable(48) %this, ptr noundef %__p) #7 align 2 personality ptr @__gxx_personality_v0 {
entry:
  %this.addr = alloca ptr, align 8
  %__p.addr = alloca ptr, align 8
  store ptr %this, ptr %this.addr, align 8
  store ptr %__p, ptr %__p.addr, align 8
  %this1 = load ptr, ptr %this.addr, align 8
  %call = call noundef nonnull align 1 dereferenceable(1) ptr @_ZNSt8_Rb_treeIPKvSt4pairIKS1_N7testing12_GLOBAL__N_115MockObjectStateEESt10_Select1stIS7_ESt4lessIS1_ESaIS7_EE21_M_get_Node_allocatorEv(ptr noundef nonnull align 8 dereferenceable(48) %this1) #3
  %0 = load ptr, ptr %__p.addr, align 8
  invoke void @_ZNSt16allocator_traitsISaISt13_Rb_tree_nodeISt4pairIKPKvN7testing12_GLOBAL__N_115MockObjectStateEEEEE10deallocateERSA_PS9_m(ptr noundef nonnull align 1 dereferenceable(1) %call, ptr noundef %0, i64 noundef 1)
          to label %invoke.cont unwind label %terminate.lpad

invoke.cont:                                      ; preds = %entry
  ret void

terminate.lpad:                                   ; preds = %entry
  %1 = landingpad { ptr, i32 }
          catch ptr null
  %2 = extractvalue { ptr, i32 } %1, 0
  call void @__clang_call_terminate(ptr %2) #19
  unreachable
}

; Function Attrs: mustprogress nounwind uwtable
define internal void @_ZNSt8_Rb_treeIPKvSt4pairIKS1_N7testing12_GLOBAL__N_115MockObjectStateEESt10_Select1stIS7_ESt4lessIS1_ESaIS7_EE15_M_destroy_nodeEPSt13_Rb_tree_nodeIS7_E(ptr noundef nonnull align 8 dereferenceable(48) %this, ptr noundef %__p) #7 align 2 personality ptr @__gxx_personality_v0 {
entry:
  %this.addr = alloca ptr, align 8
  %__p.addr = alloca ptr, align 8
  store ptr %this, ptr %this.addr, align 8
  store ptr %__p, ptr %__p.addr, align 8
  %this1 = load ptr, ptr %this.addr, align 8
  %call = call noundef nonnull align 1 dereferenceable(1) ptr @_ZNSt8_Rb_treeIPKvSt4pairIKS1_N7testing12_GLOBAL__N_115MockObjectStateEESt10_Select1stIS7_ESt4lessIS1_ESaIS7_EE21_M_get_Node_allocatorEv(ptr noundef nonnull align 8 dereferenceable(48) %this1) #3
  %0 = load ptr, ptr %__p.addr, align 8
  %call2 = invoke noundef ptr @_ZNSt13_Rb_tree_nodeISt4pairIKPKvN7testing12_GLOBAL__N_115MockObjectStateEEE9_M_valptrEv(ptr noundef nonnull align 8 dereferenceable(176) %0)
          to label %invoke.cont unwind label %terminate.lpad

invoke.cont:                                      ; preds = %entry
  call void @_ZNSt16allocator_traitsISaISt13_Rb_tree_nodeISt4pairIKPKvN7testing12_GLOBAL__N_115MockObjectStateEEEEE7destroyIS8_EEvRSA_PT_(ptr noundef nonnull align 1 dereferenceable(1) %call, ptr noundef %call2) #3
  ret void

terminate.lpad:                                   ; preds = %entry
  %1 = landingpad { ptr, i32 }
          catch ptr null
  %2 = extractvalue { ptr, i32 } %1, 0
  call void @__clang_call_terminate(ptr %2) #19
  unreachable
}

; Function Attrs: mustprogress nounwind uwtable
define internal void @_ZNSt8_Rb_treeIPKvSt4pairIKS1_N7testing12_GLOBAL__N_115MockObjectStateEESt10_Select1stIS7_ESt4lessIS1_ESaIS7_EE12_M_drop_nodeEPSt13_Rb_tree_nodeIS7_E(ptr noundef nonnull align 8 dereferenceable(48) %this, ptr noundef %__p) #7 align 2 {
entry:
  %this.addr = alloca ptr, align 8
  %__p.addr = alloca ptr, align 8
  store ptr %this, ptr %this.addr, align 8
  store ptr %__p, ptr %__p.addr, align 8
  %this1 = load ptr, ptr %this.addr, align 8
  %0 = load ptr, ptr %__p.addr, align 8
  call void @_ZNSt8_Rb_treeIPKvSt4pairIKS1_N7testing12_GLOBAL__N_115MockObjectStateEESt10_Select1stIS7_ESt4lessIS1_ESaIS7_EE15_M_destroy_nodeEPSt13_Rb_tree_nodeIS7_E(ptr noundef nonnull align 8 dereferenceable(48) %this1, ptr noundef %0) #3
  %1 = load ptr, ptr %__p.addr, align 8
  call void @_ZNSt8_Rb_treeIPKvSt4pairIKS1_N7testing12_GLOBAL__N_115MockObjectStateEESt10_Select1stIS7_ESt4lessIS1_ESaIS7_EE11_M_put_nodeEPSt13_Rb_tree_nodeIS7_E(ptr noundef nonnull align 8 dereferenceable(48) %this1, ptr noundef %1) #3
  ret void
}

; Function Attrs: mustprogress nounwind uwtable
define internal noundef ptr @_ZNSt8_Rb_treeIPKvSt4pairIKS1_N7testing12_GLOBAL__N_115MockObjectStateEESt10_Select1stIS7_ESt4lessIS1_ESaIS7_EE7_S_leftEPSt18_Rb_tree_node_base(ptr noundef %__x) #7 align 2 {
entry:
  %__x.addr = alloca ptr, align 8
  store ptr %__x, ptr %__x.addr, align 8
  %0 = load ptr, ptr %__x.addr, align 8
  %_M_left = getelementptr inbounds %"struct.std::_Rb_tree_node_base", ptr %0, i32 0, i32 2
  %1 = load ptr, ptr %_M_left, align 8
  ret ptr %1
}

; Function Attrs: mustprogress nounwind uwtable
define internal noundef ptr @_ZNSt8_Rb_treeIPKvSt4pairIKS1_N7testing12_GLOBAL__N_115MockObjectStateEESt10_Select1stIS7_ESt4lessIS1_ESaIS7_EE8_S_rightEPSt18_Rb_tree_node_base(ptr noundef %__x) #7 align 2 {
entry:
  %__x.addr = alloca ptr, align 8
  store ptr %__x, ptr %__x.addr, align 8
  %0 = load ptr, ptr %__x.addr, align 8
  %_M_right = getelementptr inbounds %"struct.std::_Rb_tree_node_base", ptr %0, i32 0, i32 3
  %1 = load ptr, ptr %_M_right, align 8
  ret ptr %1
}

; Function Attrs: mustprogress uwtable
define internal void @_ZNSt8_Rb_treeIPKvSt4pairIKS1_N7testing12_GLOBAL__N_115MockObjectStateEESt10_Select1stIS7_ESt4lessIS1_ESaIS7_EE8_M_eraseEPSt13_Rb_tree_nodeIS7_E(ptr noundef nonnull align 8 dereferenceable(48) %this, ptr noundef %__x) #4 align 2 {
entry:
  %this.addr = alloca ptr, align 8
  %__x.addr = alloca ptr, align 8
  %__y = alloca ptr, align 8
  store ptr %this, ptr %this.addr, align 8
  store ptr %__x, ptr %__x.addr, align 8
  %this1 = load ptr, ptr %this.addr, align 8
  br label %while.cond

while.cond:                                       ; preds = %while.body, %entry
  %0 = load ptr, ptr %__x.addr, align 8
  %cmp = icmp ne ptr %0, null
  br i1 %cmp, label %while.body, label %while.end

while.body:                                       ; preds = %while.cond
  %1 = load ptr, ptr %__x.addr, align 8
  %call = call noundef ptr @_ZNSt8_Rb_treeIPKvSt4pairIKS1_N7testing12_GLOBAL__N_115MockObjectStateEESt10_Select1stIS7_ESt4lessIS1_ESaIS7_EE8_S_rightEPSt18_Rb_tree_node_base(ptr noundef %1) #3
  call void @_ZNSt8_Rb_treeIPKvSt4pairIKS1_N7testing12_GLOBAL__N_115MockObjectStateEESt10_Select1stIS7_ESt4lessIS1_ESaIS7_EE8_M_eraseEPSt13_Rb_tree_nodeIS7_E(ptr noundef nonnull align 8 dereferenceable(48) %this1, ptr noundef %call)
  %2 = load ptr, ptr %__x.addr, align 8
  %call2 = call noundef ptr @_ZNSt8_Rb_treeIPKvSt4pairIKS1_N7testing12_GLOBAL__N_115MockObjectStateEESt10_Select1stIS7_ESt4lessIS1_ESaIS7_EE7_S_leftEPSt18_Rb_tree_node_base(ptr noundef %2) #3
  store ptr %call2, ptr %__y, align 8
  %3 = load ptr, ptr %__x.addr, align 8
  call void @_ZNSt8_Rb_treeIPKvSt4pairIKS1_N7testing12_GLOBAL__N_115MockObjectStateEESt10_Select1stIS7_ESt4lessIS1_ESaIS7_EE12_M_drop_nodeEPSt13_Rb_tree_nodeIS7_E(ptr noundef nonnull align 8 dereferenceable(48) %this1, ptr noundef %3) #3
  %4 = load ptr, ptr %__y, align 8
  store ptr %4, ptr %__x.addr, align 8
  br label %while.cond, !llvm.loop !44

while.end:                                        ; preds = %while.cond
  ret void
}