; Function Attrs: mustprogress nounwind uwtable
define internal fastcc void @_ZNSt8_Rb_treeIPKvSt4pairIKS1_N7testing12_GLOBAL__N_115MockObjectStateEESt10_Select1stIS7_ESt4lessIS1_ESaIS7_EE8_M_eraseEPSt13_Rb_tree_nodeIS7_E(ptr noundef %__x) unnamed_addr #7 align 2 personality ptr @__gxx_personality_v0 {
entry:
  %cmp.not5 = icmp eq ptr %__x, null
  br i1 %cmp.not5, label %while.end, label %while.body

while.body:                                       ; preds = %entry, %_ZNSt8_Rb_treeIPKvSt4pairIKS1_N7testing12_GLOBAL__N_115MockObjectStateEESt10_Select1stIS7_ESt4lessIS1_ESaIS7_EE12_M_drop_nodeEPSt13_Rb_tree_nodeIS7_E.exit
  %__x.addr.06 = phi ptr [ %__x.addr.0.val, %_ZNSt8_Rb_treeIPKvSt4pairIKS1_N7testing12_GLOBAL__N_115MockObjectStateEESt10_Select1stIS7_ESt4lessIS1_ESaIS7_EE12_M_drop_nodeEPSt13_Rb_tree_nodeIS7_E.exit ], [ %__x, %entry ]
  %0 = getelementptr i8, ptr %__x.addr.06, i64 24
  %__x.addr.0.val4 = load ptr, ptr %0, align 8
  tail call fastcc void @_ZNSt8_Rb_treeIPKvSt4pairIKS1_N7testing12_GLOBAL__N_115MockObjectStateEESt10_Select1stIS7_ESt4lessIS1_ESaIS7_EE8_M_eraseEPSt13_Rb_tree_nodeIS7_E(ptr noundef %__x.addr.0.val4)
  %1 = getelementptr i8, ptr %__x.addr.06, i64 16
  %__x.addr.0.val = load ptr, ptr %1, align 8
  %function_mockers.i.i.i.i.i.i = getelementptr inbounds i8, ptr %__x.addr.06, i64 128
  %_M_parent.i.i.i.i.i.i.i.i.i.i = getelementptr inbounds i8, ptr %__x.addr.06, i64 144
  %2 = load ptr, ptr %_M_parent.i.i.i.i.i.i.i.i.i.i, align 8
  invoke void @_ZNSt8_Rb_treeIPN7testing8internal25UntypedFunctionMockerBaseES3_St9_IdentityIS3_ESt4lessIS3_ESaIS3_EE8_M_eraseEPSt13_Rb_tree_nodeIS3_E(ptr noundef nonnull align 8 dereferenceable(48) %function_mockers.i.i.i.i.i.i, ptr noundef %2)
          to label %_ZNSt8_Rb_treeIPKvSt4pairIKS1_N7testing12_GLOBAL__N_115MockObjectStateEESt10_Select1stIS7_ESt4lessIS1_ESaIS7_EE12_M_drop_nodeEPSt13_Rb_tree_nodeIS7_E.exit unwind label %terminate.lpad.i.i.i.i.i.i.i.i

terminate.lpad.i.i.i.i.i.i.i.i:                   ; preds = %while.body
  %3 = landingpad { ptr, i32 }
          catch ptr null
  %4 = extractvalue { ptr, i32 } %3, 0
  tail call void @__clang_call_terminate(ptr %4) #30
  unreachable

_ZNSt8_Rb_treeIPKvSt4pairIKS1_N7testing12_GLOBAL__N_115MockObjectStateEESt10_Select1stIS7_ESt4lessIS1_ESaIS7_EE12_M_drop_nodeEPSt13_Rb_tree_nodeIS7_E.exit: ; preds = %while.body
  %first_used_test.i.i.i.i.i.i = getelementptr inbounds i8, ptr %__x.addr.06, i64 88
  tail call void @_ZNSt7__cxx1112basic_stringIcSt11char_traitsIcESaIcEED1Ev(ptr noundef nonnull align 8 dereferenceable(32) %first_used_test.i.i.i.i.i.i) #26
  %first_used_test_case.i.i.i.i.i.i = getelementptr inbounds i8, ptr %__x.addr.06, i64 56
  tail call void @_ZNSt7__cxx1112basic_stringIcSt11char_traitsIcESaIcEED1Ev(ptr noundef nonnull align 8 dereferenceable(32) %first_used_test_case.i.i.i.i.i.i) #26
  tail call void @_ZdlPv(ptr noundef nonnull %__x.addr.06) #28
  %cmp.not = icmp eq ptr %__x.addr.0.val, null
  br i1 %cmp.not, label %while.end, label %while.body, !llvm.loop !89

while.end:                                        ; preds = %_ZNSt8_Rb_treeIPKvSt4pairIKS1_N7testing12_GLOBAL__N_115MockObjectStateEESt10_Select1stIS7_ESt4lessIS1_ESaIS7_EE12_M_drop_nodeEPSt13_Rb_tree_nodeIS7_E.exit, %entry
  ret void
}